target datalayout = "e-m:e-p270:32:32-p271:32:32-p272:64:64-i64:64-i128:128-f80:128-n8:16:32:64-S128"
target triple = "x86_64-pc-linux-gnu"

%struct.ExprEvalStep = type { i64, ptr, ptr, %union.anon }
%union.anon = type { %struct.anon.23 }
%struct.anon.23 = type { ptr, ptr, i32, i32, ptr, ptr }
%struct.FunctionCallInfoBaseData = type { ptr, ptr, ptr, i32, i8, i16, [0 x %struct.NullableDatum] }
%struct.NullableDatum = type { i64, i8 }
%struct.FmgrInfo = type { ptr, i32, i16, i8, i8, i8, ptr, ptr, ptr }

; Function Attrs: inlinehint nounwind uwtable
define internal i32 @DatumGetInt32(i64 noundef %0) #2 {
  %2 = alloca i64, align 8
  store i64 %0, ptr %2, align 8
  %3 = load i64, ptr %2, align 8
  %4 = trunc i64 %3 to i32
  ret i32 %4
}

; Function Attrs: nounwind uwtable
define dso_local void @ExecEvalMinMax(ptr noundef %0, ptr noundef %1) #0 {
  %3 = alloca ptr, align 8
  %4 = alloca ptr, align 8
  %5 = alloca ptr, align 8
  %6 = alloca ptr, align 8
  %7 = alloca ptr, align 8
  %8 = alloca i32, align 4
  %9 = alloca i32, align 4
  %10 = alloca i32, align 4
  %11 = alloca i32, align 4
  store ptr %0, ptr %3, align 8
  store ptr %1, ptr %4, align 8
  call void @llvm.lifetime.start.p0(i64 8, ptr %5) #11
  %12 = load ptr, ptr %4, align 8
  %13 = getelementptr inbounds nuw %struct.ExprEvalStep, ptr %12, i32 0, i32 3
  %14 = getelementptr inbounds nuw %struct.anon.23, ptr %13, i32 0, i32 0
  %15 = load ptr, ptr %14, align 8
  store ptr %15, ptr %5, align 8
  call void @llvm.lifetime.start.p0(i64 8, ptr %6) #11
  %16 = load ptr, ptr %4, align 8
  %17 = getelementptr inbounds nuw %struct.ExprEvalStep, ptr %16, i32 0, i32 3
  %18 = getelementptr inbounds nuw %struct.anon.23, ptr %17, i32 0, i32 1
  %19 = load ptr, ptr %18, align 8
  store ptr %19, ptr %6, align 8
  call void @llvm.lifetime.start.p0(i64 8, ptr %7) #11
  %20 = load ptr, ptr %4, align 8
  %21 = getelementptr inbounds nuw %struct.ExprEvalStep, ptr %20, i32 0, i32 3
  %22 = getelementptr inbounds nuw %struct.anon.23, ptr %21, i32 0, i32 5
  %23 = load ptr, ptr %22, align 8
  store ptr %23, ptr %7, align 8
  call void @llvm.lifetime.start.p0(i64 4, ptr %8) #11
  %24 = load ptr, ptr %4, align 8
  %25 = getelementptr inbounds nuw %struct.ExprEvalStep, ptr %24, i32 0, i32 3
  %26 = getelementptr inbounds nuw %struct.anon.23, ptr %25, i32 0, i32 3
  %27 = load i32, ptr %26, align 4
  store i32 %27, ptr %8, align 4
  %28 = load ptr, ptr %4, align 8
  %29 = getelementptr inbounds nuw %struct.ExprEvalStep, ptr %28, i32 0, i32 2
  %30 = load ptr, ptr %29, align 8
  store i8 1, ptr %30, align 1
  call void @llvm.lifetime.start.p0(i64 4, ptr %9) #11
  store i32 0, ptr %9, align 4
  br label %31

31:                                               ; preds = %134, %2
  %32 = load i32, ptr %9, align 4
  %33 = load ptr, ptr %4, align 8
  %34 = getelementptr inbounds nuw %struct.ExprEvalStep, ptr %33, i32 0, i32 3
  %35 = getelementptr inbounds nuw %struct.anon.23, ptr %34, i32 0, i32 2
  %36 = load i32, ptr %35, align 8
  %37 = icmp slt i32 %32, %36
  br i1 %37, label %39, label %38

38:                                               ; preds = %31
  store i32 2, ptr %10, align 4
  call void @llvm.lifetime.end.p0(i64 4, ptr %9) #11
  br label %137

39:                                               ; preds = %31
  %40 = load ptr, ptr %6, align 8
  %41 = load i32, ptr %9, align 4
  %42 = sext i32 %41 to i64
  %43 = getelementptr inbounds i8, ptr %40, i64 %42
  %44 = load i8, ptr %43, align 1, !range !7, !noundef !8
  %45 = trunc i8 %44 to i1
  br i1 %45, label %46, label %47

46:                                               ; preds = %39
  br label %134

47:                                               ; preds = %39
  %48 = load ptr, ptr %4, align 8
  %49 = getelementptr inbounds nuw %struct.ExprEvalStep, ptr %48, i32 0, i32 2
  %50 = load ptr, ptr %49, align 8
  %51 = load i8, ptr %50, align 1, !range !7, !noundef !8
  %52 = trunc i8 %51 to i1
  br i1 %52, label %53, label %65

53:                                               ; preds = %47
  %54 = load ptr, ptr %5, align 8
  %55 = load i32, ptr %9, align 4
  %56 = sext i32 %55 to i64
  %57 = getelementptr inbounds i64, ptr %54, i64 %56
  %58 = load i64, ptr %57, align 8
  %59 = load ptr, ptr %4, align 8
  %60 = getelementptr inbounds nuw %struct.ExprEvalStep, ptr %59, i32 0, i32 1
  %61 = load ptr, ptr %60, align 8
  store i64 %58, ptr %61, align 8
  %62 = load ptr, ptr %4, align 8
  %63 = getelementptr inbounds nuw %struct.ExprEvalStep, ptr %62, i32 0, i32 2
  %64 = load ptr, ptr %63, align 8
  store i8 0, ptr %64, align 1
  br label %133

65:                                               ; preds = %47
  call void @llvm.lifetime.start.p0(i64 4, ptr %11) #11
  %66 = load ptr, ptr %4, align 8
  %67 = getelementptr inbounds nuw %struct.ExprEvalStep, ptr %66, i32 0, i32 1
  %68 = load ptr, ptr %67, align 8
  %69 = load i64, ptr %68, align 8
  %70 = load ptr, ptr %7, align 8
  %71 = getelementptr inbounds nuw %struct.FunctionCallInfoBaseData, ptr %70, i32 0, i32 6
  %72 = getelementptr inbounds [0 x %struct.NullableDatum], ptr %71, i64 0, i64 0
  %73 = getelementptr inbounds nuw %struct.NullableDatum, ptr %72, i32 0, i32 0
  store i64 %69, ptr %73, align 8
  %74 = load ptr, ptr %5, align 8
  %75 = load i32, ptr %9, align 4
  %76 = sext i32 %75 to i64
  %77 = getelementptr inbounds i64, ptr %74, i64 %76
  %78 = load i64, ptr %77, align 8
  %79 = load ptr, ptr %7, align 8
  %80 = getelementptr inbounds nuw %struct.FunctionCallInfoBaseData, ptr %79, i32 0, i32 6
  %81 = getelementptr inbounds [0 x %struct.NullableDatum], ptr %80, i64 0, i64 1
  %82 = getelementptr inbounds nuw %struct.NullableDatum, ptr %81, i32 0, i32 0
  store i64 %78, ptr %82, align 8
  %83 = load ptr, ptr %7, align 8
  %84 = getelementptr inbounds nuw %struct.FunctionCallInfoBaseData, ptr %83, i32 0, i32 4
  store i8 0, ptr %84, align 4
  %85 = load ptr, ptr %7, align 8
  %86 = getelementptr inbounds nuw %struct.FunctionCallInfoBaseData, ptr %85, i32 0, i32 0
  %87 = load ptr, ptr %86, align 8
  %88 = getelementptr inbounds nuw %struct.FmgrInfo, ptr %87, i32 0, i32 0
  %89 = load ptr, ptr %88, align 8
  %90 = load ptr, ptr %7, align 8
  %91 = call i64 %89(ptr noundef %90)
  %92 = call i32 @DatumGetInt32(i64 noundef %91)
  store i32 %92, ptr %11, align 4
  %93 = load ptr, ptr %7, align 8
  %94 = getelementptr inbounds nuw %struct.FunctionCallInfoBaseData, ptr %93, i32 0, i32 4
  %95 = load i8, ptr %94, align 4, !range !7, !noundef !8
  %96 = trunc i8 %95 to i1
  br i1 %96, label %97, label %98

97:                                               ; preds = %65
  store i32 4, ptr %10, align 4
  br label %130

98:                                               ; preds = %65
  %99 = load i32, ptr %11, align 4
  %100 = icmp sgt i32 %99, 0
  br i1 %100, label %101, label %113

101:                                              ; preds = %98
  %102 = load i32, ptr %8, align 4
  %103 = icmp eq i32 %102, 1
  br i1 %103, label %104, label %113

104:                                              ; preds = %101
  %105 = load ptr, ptr %5, align 8
  %106 = load i32, ptr %9, align 4
  %107 = sext i32 %106 to i64
  %108 = getelementptr inbounds i64, ptr %105, i64 %107
  %109 = load i64, ptr %108, align 8
  %110 = load ptr, ptr %4, align 8
  %111 = getelementptr inbounds nuw %struct.ExprEvalStep, ptr %110, i32 0, i32 1
  %112 = load ptr, ptr %111, align 8
  store i64 %109, ptr %112, align 8
  br label %129

113:                                              ; preds = %101, %98
  %114 = load i32, ptr %11, align 4
  %115 = icmp slt i32 %114, 0
  br i1 %115, label %116, label %128

116:                                              ; preds = %113
  %117 = load i32, ptr %8, align 4
  %118 = icmp eq i32 %117, 0
  br i1 %118, label %119, label %128

119:                                              ; preds = %116
  %120 = load ptr, ptr %5, align 8
  %121 = load i32, ptr %9, align 4
  %122 = sext i32 %121 to i64
  %123 = getelementptr inbounds i64, ptr %120, i64 %122
  %124 = load i64, ptr %123, align 8
  %125 = load ptr, ptr %4, align 8
  %126 = getelementptr inbounds nuw %struct.ExprEvalStep, ptr %125, i32 0, i32 1
  %127 = load ptr, ptr %126, align 8
  store i64 %124, ptr %127, align 8
  br label %128

128:                                              ; preds = %119, %116, %113
  br label %129

129:                                              ; preds = %128, %104
  store i32 0, ptr %10, align 4
  br label %130

130:                                              ; preds = %129, %97
  call void @llvm.lifetime.end.p0(i64 4, ptr %11) #11
  %131 = load i32, ptr %10, align 4
  switch i32 %131, label %138 [
    i32 0, label %132
    i32 4, label %134
  ]

132:                                              ; preds = %130
  br label %133

133:                                              ; preds = %132, %53
  br label %134

134:                                              ; preds = %133, %130, %46
  %135 = load i32, ptr %9, align 4
  %136 = add i32 %135, 1
  store i32 %136, ptr %9, align 4
  br label %31, !llvm.loop !20

137:                                              ; preds = %38
  call void @llvm.lifetime.end.p0(i64 4, ptr %8) #11
  call void @llvm.lifetime.end.p0(i64 8, ptr %7) #11
  call void @llvm.lifetime.end.p0(i64 8, ptr %6) #11
  call void @llvm.lifetime.end.p0(i64 8, ptr %5) #11
  ret void

138:                                              ; preds = %130
  unreachable
}