; Function Attrs: nounwind uwtable
define dso_local void @ExecEvalMinMax(ptr readnone captures(none) %0, ptr noundef readonly captures(none) %1) local_unnamed_addr #0 {
  %3 = getelementptr inbounds nuw i8, ptr %1, i64 24
  %4 = load ptr, ptr %3, align 8
  %5 = getelementptr inbounds nuw i8, ptr %1, i64 32
  %6 = load ptr, ptr %5, align 8
  %7 = getelementptr inbounds nuw i8, ptr %1, i64 56
  %8 = load ptr, ptr %7, align 8
  %9 = getelementptr inbounds nuw i8, ptr %1, i64 44
  %10 = load i32, ptr %9, align 4
  %11 = getelementptr inbounds nuw i8, ptr %1, i64 16
  %12 = load ptr, ptr %11, align 8
  store i8 1, ptr %12, align 1
  %13 = getelementptr inbounds nuw i8, ptr %1, i64 40
  %14 = load i32, ptr %13, align 8
  %15 = icmp sgt i32 %14, 0
  br i1 %15, label %.lr.ph, label %._crit_edge

.lr.ph:                                           ; preds = %2
  %.fr43 = freeze i32 %10
  %16 = getelementptr inbounds nuw i8, ptr %1, i64 8
  %17 = getelementptr inbounds nuw i8, ptr %8, i64 32
  %18 = getelementptr inbounds nuw i8, ptr %8, i64 48
  %19 = getelementptr inbounds nuw i8, ptr %8, i64 28
  switch i32 %.fr43, label %.lr.ph.split.us.split.us [
    i32 1, label %.lr.ph.split.split.us
    i32 0, label %.lr.ph.split.us.split
  ]

.lr.ph.split.us.split.us:                         ; preds = %.lr.ph, %40
  %indvars.iv = phi i64 [ %indvars.iv.next, %40 ], [ 0, %.lr.ph ]
  %20 = getelementptr inbounds nuw i8, ptr %6, i64 %indvars.iv
  %21 = load i8, ptr %20, align 1, !range !8, !noundef !9
  %22 = trunc nuw i8 %21 to i1
  br i1 %22, label %40, label %23

23:                                               ; preds = %.lr.ph.split.us.split.us
  %24 = load ptr, ptr %11, align 8
  %25 = load i8, ptr %24, align 1, !range !8, !noundef !9
  %26 = trunc nuw i8 %25 to i1
  br i1 %26, label %35, label %27

27:                                               ; preds = %23
  %28 = load ptr, ptr %16, align 8
  %29 = load i64, ptr %28, align 8
  store i64 %29, ptr %17, align 8
  %30 = getelementptr inbounds nuw i64, ptr %4, i64 %indvars.iv
  %31 = load i64, ptr %30, align 8
  store i64 %31, ptr %18, align 8
  store i8 0, ptr %19, align 4
  %32 = load ptr, ptr %8, align 8
  %33 = load ptr, ptr %32, align 8
  %34 = tail call i64 %33(ptr noundef nonnull %8) #18
  br label %40

35:                                               ; preds = %23
  %36 = getelementptr inbounds nuw i64, ptr %4, i64 %indvars.iv
  %37 = load i64, ptr %36, align 8
  %38 = load ptr, ptr %16, align 8
  store i64 %37, ptr %38, align 8
  %39 = load ptr, ptr %11, align 8
  store i8 0, ptr %39, align 1
  br label %40

40:                                               ; preds = %27, %35, %.lr.ph.split.us.split.us
  %indvars.iv.next = add nuw nsw i64 %indvars.iv, 1
  %41 = load i32, ptr %13, align 8
  %42 = sext i32 %41 to i64
  %43 = icmp slt i64 %indvars.iv.next, %42
  br i1 %43, label %.lr.ph.split.us.split.us, label %._crit_edge, !llvm.loop !21

.lr.ph.split.us.split:                            ; preds = %.lr.ph, %71
  %indvars.iv49 = phi i64 [ %indvars.iv.next50, %71 ], [ 0, %.lr.ph ]
  %44 = getelementptr inbounds nuw i8, ptr %6, i64 %indvars.iv49
  %45 = load i8, ptr %44, align 1, !range !8, !noundef !9
  %46 = trunc nuw i8 %45 to i1
  br i1 %46, label %71, label %47

47:                                               ; preds = %.lr.ph.split.us.split
  %48 = load ptr, ptr %11, align 8
  %49 = load i8, ptr %48, align 1, !range !8, !noundef !9
  %50 = trunc nuw i8 %49 to i1
  br i1 %50, label %66, label %51

51:                                               ; preds = %47
  %52 = load ptr, ptr %16, align 8
  %53 = load i64, ptr %52, align 8
  store i64 %53, ptr %17, align 8
  %54 = getelementptr inbounds nuw i64, ptr %4, i64 %indvars.iv49
  %55 = load i64, ptr %54, align 8
  store i64 %55, ptr %18, align 8
  store i8 0, ptr %19, align 4
  %56 = load ptr, ptr %8, align 8
  %57 = load ptr, ptr %56, align 8
  %58 = tail call i64 %57(ptr noundef nonnull %8) #18
  %59 = load i8, ptr %19, align 4, !range !8, !noundef !9
  %60 = trunc nuw i8 %59 to i1
  %61 = and i64 %58, 2147483648
  %62 = icmp eq i64 %61, 0
  %or.cond.not = select i1 %60, i1 true, i1 %62
  br i1 %or.cond.not, label %71, label %63

63:                                               ; preds = %51
  %64 = load i64, ptr %54, align 8
  %65 = load ptr, ptr %16, align 8
  store i64 %64, ptr %65, align 8
  br label %71

66:                                               ; preds = %47
  %67 = getelementptr inbounds nuw i64, ptr %4, i64 %indvars.iv49
  %68 = load i64, ptr %67, align 8
  %69 = load ptr, ptr %16, align 8
  store i64 %68, ptr %69, align 8
  %70 = load ptr, ptr %11, align 8
  store i8 0, ptr %70, align 1
  br label %71

71:                                               ; preds = %66, %63, %51, %.lr.ph.split.us.split
  %indvars.iv.next50 = add nuw nsw i64 %indvars.iv49, 1
  %72 = load i32, ptr %13, align 8
  %73 = sext i32 %72 to i64
  %74 = icmp slt i64 %indvars.iv.next50, %73
  br i1 %74, label %.lr.ph.split.us.split, label %._crit_edge, !llvm.loop !21

.lr.ph.split.split.us:                            ; preds = %.lr.ph, %102
  %indvars.iv52 = phi i64 [ %indvars.iv.next53, %102 ], [ 0, %.lr.ph ]
  %75 = getelementptr inbounds nuw i8, ptr %6, i64 %indvars.iv52
  %76 = load i8, ptr %75, align 1, !range !8, !noundef !9
  %77 = trunc nuw i8 %76 to i1
  br i1 %77, label %102, label %78

78:                                               ; preds = %.lr.ph.split.split.us
  %79 = load ptr, ptr %11, align 8
  %80 = load i8, ptr %79, align 1, !range !8, !noundef !9
  %81 = trunc nuw i8 %80 to i1
  br i1 %81, label %97, label %82

82:                                               ; preds = %78
  %83 = load ptr, ptr %16, align 8
  %84 = load i64, ptr %83, align 8
  store i64 %84, ptr %17, align 8
  %85 = getelementptr inbounds nuw i64, ptr %4, i64 %indvars.iv52
  %86 = load i64, ptr %85, align 8
  store i64 %86, ptr %18, align 8
  store i8 0, ptr %19, align 4
  %87 = load ptr, ptr %8, align 8
  %88 = load ptr, ptr %87, align 8
  %89 = tail call i64 %88(ptr noundef nonnull %8) #18
  %90 = trunc i64 %89 to i32
  %91 = load i8, ptr %19, align 4, !range !8, !noundef !9
  %92 = trunc nuw i8 %91 to i1
  %93 = icmp slt i32 %90, 1
  %or.cond42.not = select i1 %92, i1 true, i1 %93
  br i1 %or.cond42.not, label %102, label %94

94:                                               ; preds = %82
  %95 = load i64, ptr %85, align 8
  %96 = load ptr, ptr %16, align 8
  store i64 %95, ptr %96, align 8
  br label %102

97:                                               ; preds = %78
  %98 = getelementptr inbounds nuw i64, ptr %4, i64 %indvars.iv52
  %99 = load i64, ptr %98, align 8
  %100 = load ptr, ptr %16, align 8
  store i64 %99, ptr %100, align 8
  %101 = load ptr, ptr %11, align 8
  store i8 0, ptr %101, align 1
  br label %102

102:                                              ; preds = %97, %94, %82, %.lr.ph.split.split.us
  %indvars.iv.next53 = add nuw nsw i64 %indvars.iv52, 1
  %103 = load i32, ptr %13, align 8
  %104 = sext i32 %103 to i64
  %105 = icmp slt i64 %indvars.iv.next53, %104
  br i1 %105, label %.lr.ph.split.split.us, label %._crit_edge, !llvm.loop !21

._crit_edge:                                      ; preds = %71, %102, %40, %2
  ret void
}